; Function Attrs: mustprogress uwtable
define noundef double @_ZN8QuantLib8LossDist27probabilityOfAtLeastNEventsEiRSt6vectorIdSaIdEE(i32 noundef %k, ptr nocapture noundef nonnull readonly align 8 dereferenceable(24) %p) local_unnamed_addr #3 align 2 personality ptr @__gxx_personality_v0 {
entry:
  %probability = alloca %"class.std::vector", align 8
  call void @llvm.lifetime.start.p0(i64 24, ptr nonnull %probability) #20
  call void @_ZN8QuantLib8LossDist20probabilityOfNEventsERSt6vectorIdSaIdEE(ptr dead_on_unwind nonnull writable sret(%"class.std::vector") align 8 %probability, ptr noundef nonnull align 8 dereferenceable(24) %p)
  %cmp4 = icmp sgt i32 %k, 0
  %.pre = load ptr, ptr %probability, align 8, !tbaa !3
  br i1 %cmp4, label %for.body.lr.ph, label %for.cond.cleanup

for.body.lr.ph:                                   ; preds = %entry
  %wide.trip.count = zext nneg i32 %k to i64
  br label %for.body

for.cond.cleanup:                                 ; preds = %entry
  %tobool.not.i.i.i = icmp eq ptr %.pre, null
  br i1 %tobool.not.i.i.i, label %_ZNSt6vectorIdSaIdEED2Ev.exit, label %if.then.i.i.i

if.then.i.i.i:                                    ; preds = %for.body, %for.cond.cleanup
  %sum.0.lcssa10 = phi double [ 1.000000e+00, %for.cond.cleanup ], [ %sub, %for.body ]
  %_M_end_of_storage.i.i = getelementptr inbounds nuw i8, ptr %probability, i64 16
  %0 = load ptr, ptr %_M_end_of_storage.i.i, align 8, !tbaa !26
  %sub.ptr.lhs.cast.i.i = ptrtoint ptr %0 to i64
  %sub.ptr.rhs.cast.i.i = ptrtoint ptr %.pre to i64
  %sub.ptr.sub.i.i = sub i64 %sub.ptr.lhs.cast.i.i, %sub.ptr.rhs.cast.i.i
  tail call void @_ZdlPvm(ptr noundef nonnull %.pre, i64 noundef %sub.ptr.sub.i.i) #23
  br label %_ZNSt6vectorIdSaIdEED2Ev.exit

_ZNSt6vectorIdSaIdEED2Ev.exit:                    ; preds = %for.cond.cleanup, %if.then.i.i.i
  %sum.0.lcssa11 = phi double [ 1.000000e+00, %for.cond.cleanup ], [ %sum.0.lcssa10, %if.then.i.i.i ]
  call void @llvm.lifetime.end.p0(i64 24, ptr nonnull %probability) #20
  ret double %sum.0.lcssa11

for.body:                                         ; preds = %for.body.lr.ph, %for.body
  %indvars.iv = phi i64 [ 0, %for.body.lr.ph ], [ %indvars.iv.next, %for.body ]
  %sum.05 = phi double [ 1.000000e+00, %for.body.lr.ph ], [ %sub, %for.body ]
  %add.ptr.i = getelementptr inbounds nuw double, ptr %.pre, i64 %indvars.iv
  %1 = load double, ptr %add.ptr.i, align 8, !tbaa !8
  %sub = fsub double %sum.05, %1
  %indvars.iv.next = add nuw nsw i64 %indvars.iv, 1
  %exitcond.not = icmp eq i64 %indvars.iv.next, %wide.trip.count
  br i1 %exitcond.not, label %if.then.i.i.i, label %for.body, !llvm.loop !31
}